target datalayout = "e-m:e-p270:32:32-p271:32:32-p272:64:64-i64:64-i128:128-f80:128-n8:16:32:64-S128"
target triple = "x86_64-pc-linux-gnu"

%struct.pm_string_t = type { ptr, i64, i32 }
%struct.pm_options = type { ptr, ptr, %struct.pm_string_t, i32, %struct.pm_string_t, i64, ptr, i32, i8, i8, i8, i8, i8, i8 }

; Function Attrs: nounwind sspstrong uwtable
define internal i64 @parse_lex(i32 noundef %0, ptr noundef %1, i64 noundef %2) #0 {
  %4 = alloca i32, align 4
  %5 = alloca ptr, align 8
  %6 = alloca i64, align 8
  %7 = alloca %struct.pm_string_t, align 8
  %8 = alloca %struct.pm_options, align 8
  %9 = alloca i64, align 8
  store i32 %0, ptr %4, align 4, !tbaa !18
  store ptr %1, ptr %5, align 8, !tbaa !14
  store i64 %2, ptr %6, align 8, !tbaa !7
  call void @llvm.lifetime.start.p0(i64 24, ptr %7) #24
  call void @llvm.lifetime.start.p0(i64 104, ptr %8) #24
  call void @llvm.memset.p0.i64(ptr align 8 %8, i8 0, i64 104, i1 false)
  %10 = load i32, ptr %4, align 4, !tbaa !18
  %11 = load ptr, ptr %5, align 8, !tbaa !14
  call void @string_options(i32 noundef %10, ptr noundef %11, ptr noundef %7, ptr noundef %8)
  call void @llvm.lifetime.start.p0(i64 8, ptr %9) #24
  %12 = call i64 @parse_lex_input(ptr noundef %7, ptr noundef %8, i1 noundef zeroext true)
  store i64 %12, ptr %9, align 8, !tbaa !7
  call void @pm_string_free(ptr noundef %7)
  call void @pm_options_free(ptr noundef %8)
  %13 = load i64, ptr %9, align 8, !tbaa !7
  call void @llvm.lifetime.end.p0(i64 8, ptr %9) #24
  call void @llvm.lifetime.end.p0(i64 104, ptr %8) #24
  call void @llvm.lifetime.end.p0(i64 24, ptr %7) #24
  ret i64 %13
}